target datalayout = "e-m:e-p270:32:32-p271:32:32-p272:64:64-i64:64-i128:128-f80:128-n8:16:32:64-S128"
target triple = "x86_64-pc-linux-gnu"

%"struct.std::_Rb_tree_header" = type { %"struct.std::_Rb_tree_node_base", i64 }
%"struct.std::_Rb_tree_node_base" = type { i32, ptr, ptr, ptr }
%"class.vcg::Matrix44" = type { %"struct.std::array" }
%"struct.std::array" = type { [16 x float] }
%class.QString = type { ptr }
%"class.vcg::Color4" = type { %"class.vcg::Point4" }
%"class.vcg::Point4" = type { [4 x i8] }
%class.GLArea = type <{ %class.QGLWidget, i32, [4 x i8], ptr, %"class.vcg::Trackball", %"class.vcg::Trackball", %class.GLAreaSetting, %class.QMap, %class.QList, i8, i8, [6 x i8], %class.QString, %class.QMap.33, i8, i8, i8, i8, i8, i8, i8, i8, %class.QString, %class.QString, i8, [3 x i8], %"class.vcg::Point2", [4 x i8], ptr, ptr, ptr, %class.QFont, ptr, ptr, ptr, %class.QMap.34, ptr, float, float, float, float, float, [4 x i8], %class.SnapshotSetting, i32, [4 x i8], %class.QMap.35, %class.QMap.35, float, float, %class.QImage, i8, [3 x i8], i32, i32, i32, i32, i32, i8, [3 x i8], i32, i32, i8, [3 x i8], float, i32, %class.QString, i32, [4 x i8] }>
%class.QGLWidget = type { %class.QWidget }
%class.QWidget = type { %class.QObject, %class.QPaintDevice, ptr }
%class.QObject = type { ptr, %class.QScopedPointer }
%class.QScopedPointer = type { ptr }
%class.QPaintDevice = type { ptr, i16, ptr }
%"class.vcg::Trackball" = type <{ %"class.vcg::Transform", %"class.vcg::View", i32, ptr, ptr, ptr, %"class.std::map.17", %"class.vcg::Similarityf", %"class.vcg::Similarityf", %"class.vcg::Similarityf", %"class.vcg::Point3", [4 x i8], %"class.std::vector.25", i8, [3 x i8], i32, i32, %"class.vcg::Quaternion", i8, i8, [2 x i8], %"class.std::__cxx11::list", i32, i8, [3 x i8] }>
%"class.vcg::Transform" = type { %"class.vcg::Similarityf", %"class.vcg::Point3", float }
%"class.vcg::View" = type <{ %"class.vcg::Matrix44", %"class.vcg::Matrix44", %"class.vcg::Matrix44", %"class.vcg::Matrix44", [4 x i32], i8, [3 x i8] }>
%"class.std::map.17" = type { %"class.std::_Rb_tree.18" }
%"class.std::_Rb_tree.18" = type { %"struct.std::_Rb_tree<int, std::pair<const int, vcg::TrackMode *>, std::_Select1st<std::pair<const int, vcg::TrackMode *>>, std::less<int>>::_Rb_tree_impl" }
%"struct.std::_Rb_tree<int, std::pair<const int, vcg::TrackMode *>, std::_Select1st<std::pair<const int, vcg::TrackMode *>>, std::less<int>>::_Rb_tree_impl" = type { %"struct.std::_Rb_tree_key_compare.22", %"struct.std::_Rb_tree_header" }
%"struct.std::_Rb_tree_key_compare.22" = type { %"struct.std::less.23" }
%"struct.std::less.23" = type { i8 }
%"class.vcg::Similarityf" = type { %"class.vcg::Similarity" }
%"class.vcg::Similarity" = type { %"class.vcg::Quaternion", %"class.vcg::Point3", float }
%"class.vcg::Point3" = type { [3 x float] }
%"class.std::vector.25" = type { %"struct.std::_Vector_base.26" }
%"struct.std::_Vector_base.26" = type { %"struct.std::_Vector_base<vcg::Point3<float>, std::allocator<vcg::Point3<float>>>::_Vector_impl" }
%"struct.std::_Vector_base<vcg::Point3<float>, std::allocator<vcg::Point3<float>>>::_Vector_impl" = type { %"struct.std::_Vector_base<vcg::Point3<float>, std::allocator<vcg::Point3<float>>>::_Vector_impl_data" }
%"struct.std::_Vector_base<vcg::Point3<float>, std::allocator<vcg::Point3<float>>>::_Vector_impl_data" = type { ptr, ptr, ptr }
%"class.vcg::Quaternion" = type { %"class.vcg::Point4.16" }
%"class.vcg::Point4.16" = type { [4 x float] }
%"class.std::__cxx11::list" = type { %"class.std::__cxx11::_List_base" }
%"class.std::__cxx11::_List_base" = type { %"struct.std::__cxx11::_List_base<vcg::Transform, std::allocator<vcg::Transform>>::_List_impl" }
%"struct.std::__cxx11::_List_base<vcg::Transform, std::allocator<vcg::Transform>>::_List_impl" = type { %"struct.std::__detail::_List_node_header" }
%"struct.std::__detail::_List_node_header" = type { %"struct.std::__detail::_List_node_base", i64 }
%"struct.std::__detail::_List_node_base" = type { ptr, ptr }
%class.GLAreaSetting = type { %"class.vcg::Color4", %"class.vcg::Color4", %"class.vcg::Color4", %"class.vcg::Color4", %"class.vcg::Color4", %"class.vcg::Color4", %"class.vcg::Color4", %"class.vcg::Color4", %"class.vcg::Color4", i32, i32, i32, i8, i8, float, i8, i8, i32, ptr }
%class.QMap = type { ptr }
%class.QList = type { %union.anon }
%union.anon = type { %struct.QListData }
%struct.QListData = type { ptr }
%class.QMap.33 = type { ptr }
%"class.vcg::Point2" = type { [2 x i32] }
%class.QFont = type <{ %class.QExplicitlySharedDataPointer, i32, [4 x i8] }>
%class.QExplicitlySharedDataPointer = type { ptr }
%class.QMap.34 = type { ptr }
%class.SnapshotSetting = type { %class.QString, %class.QString, i32, i32, i32, i8, i8, i8, i8 }
%class.QMap.35 = type { ptr }
%class.QImage = type { %class.QPaintDevice, ptr }

; Function Attrs: mustprogress uwtable
define void @_ZN6GLArea9setTargetER6QImage(ptr noundef nonnull align 8 dereferenceable(1676) %0, ptr noundef nonnull align 8 dereferenceable(32) %1) #5 align 2 personality ptr @__gxx_personality_v0 {
  %3 = alloca ptr, align 8
  %4 = alloca ptr, align 8
  %5 = alloca %class.QImage, align 8
  %6 = alloca ptr, align 8
  %7 = alloca i32, align 4
  store ptr %0, ptr %3, align 8
  store ptr %1, ptr %4, align 8
  %8 = load ptr, ptr %3, align 8
  call void @_ZN9QGLWidget11makeCurrentEv(ptr noundef nonnull align 8 dereferenceable(48) %8)
  %9 = load ptr, ptr %4, align 8
  %10 = call noundef zeroext i1 @_ZNK6QImage6isNullEv(ptr noundef nonnull align 8 dereferenceable(32) %9)
  br i1 %10, label %11, label %12

11:                                               ; preds = %2
  br label %37

12:                                               ; preds = %2
  %13 = getelementptr inbounds %class.GLArea, ptr %8, i32 0, i32 65
  %14 = load i32, ptr %13, align 4
  %15 = icmp ne i32 %14, 0
  br i1 %15, label %16, label %19

16:                                               ; preds = %12
  %17 = getelementptr inbounds %class.GLArea, ptr %8, i32 0, i32 65
  call void @glDeleteTextures(i32 noundef 1, ptr noundef %17)
  %18 = getelementptr inbounds %class.GLArea, ptr %8, i32 0, i32 65
  store i32 0, ptr %18, align 4
  br label %19

19:                                               ; preds = %16, %12
  %20 = getelementptr inbounds %class.GLArea, ptr %8, i32 0, i32 65
  call void @glGenTextures(i32 noundef 1, ptr noundef %20)
  %21 = load ptr, ptr %4, align 8
  call void @_ZN9QGLWidget17convertToGLFormatERK6QImage(ptr dead_on_unwind writable sret(%class.QImage) align 8 %5, ptr noundef nonnull align 8 dereferenceable(32) %21)
  %22 = getelementptr inbounds %class.GLArea, ptr %8, i32 0, i32 65
  %23 = load i32, ptr %22, align 4
  invoke void @glBindTexture(i32 noundef 3553, i32 noundef %23)
          to label %24 unwind label %38

24:                                               ; preds = %19
  invoke void @glTexParameteri(i32 noundef 3553, i32 noundef 10240, i32 noundef 9728)
          to label %25 unwind label %38

25:                                               ; preds = %24
  invoke void @glTexParameteri(i32 noundef 3553, i32 noundef 10241, i32 noundef 9728)
          to label %26 unwind label %38

26:                                               ; preds = %25
  invoke void @glTexParameteri(i32 noundef 3553, i32 noundef 10242, i32 noundef 10496)
          to label %27 unwind label %38

27:                                               ; preds = %26
  invoke void @glTexParameteri(i32 noundef 3553, i32 noundef 10243, i32 noundef 10496)
          to label %28 unwind label %38

28:                                               ; preds = %27
  %29 = invoke noundef i32 @_ZNK6QImage5widthEv(ptr noundef nonnull align 8 dereferenceable(32) %5)
          to label %30 unwind label %38

30:                                               ; preds = %28
  %31 = invoke noundef i32 @_ZNK6QImage6heightEv(ptr noundef nonnull align 8 dereferenceable(32) %5)
          to label %32 unwind label %38

32:                                               ; preds = %30
  %33 = invoke noundef ptr @_ZN6QImage4bitsEv(ptr noundef nonnull align 8 dereferenceable(32) %5)
          to label %34 unwind label %38

34:                                               ; preds = %32
  invoke void @glTexImage2D(i32 noundef 3553, i32 noundef 0, i32 noundef 3, i32 noundef %29, i32 noundef %31, i32 noundef 0, i32 noundef 6408, i32 noundef 5121, ptr noundef %33)
          to label %35 unwind label %38

35:                                               ; preds = %34
  invoke void @glBindTexture(i32 noundef 3553, i32 noundef 0)
          to label %36 unwind label %38

36:                                               ; preds = %35
  call void @_ZN6QImageD1Ev(ptr noundef nonnull align 8 dereferenceable(32) %5) #3
  br label %37

37:                                               ; preds = %36, %11
  ret void

38:                                               ; preds = %35, %34, %32, %30, %28, %27, %26, %25, %24, %19
  %39 = landingpad { ptr, i32 }
          cleanup
  %40 = extractvalue { ptr, i32 } %39, 0
  store ptr %40, ptr %6, align 8
  %41 = extractvalue { ptr, i32 } %39, 1
  store i32 %41, ptr %7, align 4
  call void @_ZN6QImageD1Ev(ptr noundef nonnull align 8 dereferenceable(32) %5) #3
  br label %42

42:                                               ; preds = %38
  %43 = load ptr, ptr %6, align 8
  %44 = load i32, ptr %7, align 4
  %45 = insertvalue { ptr, i32 } poison, ptr %43, 0
  %46 = insertvalue { ptr, i32 } %45, i32 %44, 1
  resume { ptr, i32 } %46
}