; Function Attrs: mustprogress uwtable
define void @_ZN6GLArea9setTargetER6QImage(ptr noundef nonnull align 8 dereferenceable(1676) %0, ptr noundef nonnull align 8 dereferenceable(32) %1) local_unnamed_addr #9 align 2 personality ptr @__gxx_personality_v0 {
  %3 = alloca %class.QImage, align 8
  tail call void @_ZN9QGLWidget11makeCurrentEv(ptr noundef nonnull align 8 dereferenceable(48) %0)
  %4 = tail call noundef zeroext i1 @_ZNK6QImage6isNullEv(ptr noundef nonnull align 8 dereferenceable(32) %1)
  br i1 %4, label %24, label %5

5:                                                ; preds = %2
  %6 = getelementptr inbounds i8, ptr %0, i64 1660
  %7 = load i32, ptr %6, align 4
  %.not = icmp eq i32 %7, 0
  br i1 %.not, label %9, label %8

8:                                                ; preds = %5
  tail call void @glDeleteTextures(i32 noundef 1, ptr noundef nonnull %6)
  store i32 0, ptr %6, align 4
  br label %9

9:                                                ; preds = %8, %5
  tail call void @glGenTextures(i32 noundef 1, ptr noundef nonnull %6)
  call void @_ZN9QGLWidget17convertToGLFormatERK6QImage(ptr dead_on_unwind nonnull writable sret(%class.QImage) align 8 %3, ptr noundef nonnull align 8 dereferenceable(32) %1)
  %10 = load i32, ptr %6, align 4
  invoke void @glBindTexture(i32 noundef 3553, i32 noundef %10)
          to label %11 unwind label %25

11:                                               ; preds = %9
  invoke void @glTexParameteri(i32 noundef 3553, i32 noundef 10240, i32 noundef 9728)
          to label %12 unwind label %25

12:                                               ; preds = %11
  invoke void @glTexParameteri(i32 noundef 3553, i32 noundef 10241, i32 noundef 9728)
          to label %13 unwind label %25

13:                                               ; preds = %12
  invoke void @glTexParameteri(i32 noundef 3553, i32 noundef 10242, i32 noundef 10496)
          to label %14 unwind label %25

14:                                               ; preds = %13
  invoke void @glTexParameteri(i32 noundef 3553, i32 noundef 10243, i32 noundef 10496)
          to label %15 unwind label %25

15:                                               ; preds = %14
  %16 = invoke noundef i32 @_ZNK6QImage5widthEv(ptr noundef nonnull align 8 dereferenceable(32) %3)
          to label %17 unwind label %25

17:                                               ; preds = %15
  %18 = invoke noundef i32 @_ZNK6QImage6heightEv(ptr noundef nonnull align 8 dereferenceable(32) %3)
          to label %19 unwind label %25

19:                                               ; preds = %17
  %20 = invoke noundef ptr @_ZN6QImage4bitsEv(ptr noundef nonnull align 8 dereferenceable(32) %3)
          to label %21 unwind label %25

21:                                               ; preds = %19
  invoke void @glTexImage2D(i32 noundef 3553, i32 noundef 0, i32 noundef 3, i32 noundef %16, i32 noundef %18, i32 noundef 0, i32 noundef 6408, i32 noundef 5121, ptr noundef %20)
          to label %22 unwind label %25

22:                                               ; preds = %21
  invoke void @glBindTexture(i32 noundef 3553, i32 noundef 0)
          to label %23 unwind label %25

23:                                               ; preds = %22
  call void @_ZN6QImageD1Ev(ptr noundef nonnull align 8 dereferenceable(32) %3) #32
  br label %24

24:                                               ; preds = %2, %23
  ret void

25:                                               ; preds = %22, %21, %19, %17, %15, %14, %13, %12, %11, %9
  %26 = landingpad { ptr, i32 }
          cleanup
  call void @_ZN6QImageD1Ev(ptr noundef nonnull align 8 dereferenceable(32) %3) #32
  resume { ptr, i32 } %26
}